; Function Attrs: mustprogress uwtable
define hidden noundef nonnull align 8 dereferenceable(8) ptr @_ZN3optlsERSoRK6vectorI16inf_eps_rationalI12inf_rationalELb1EjE(ptr noundef nonnull returned align 8 dereferenceable(8) %0, ptr noundef nonnull readonly align 8 captures(none) dereferenceable(8) %1) local_unnamed_addr #4 personality ptr @__gxx_personality_v0 {
  %3 = alloca %"class.std::__cxx11::basic_string", align 8
  %4 = getelementptr inbounds nuw i8, ptr %3, i64 8
  %5 = getelementptr inbounds nuw i8, ptr %3, i64 16
  br label %6

6:                                                ; preds = %_ZlsI12inf_rationalERSoS1_RK16inf_eps_rationalIT_E.exit, %2
  %indvars.iv = phi i64 [ %indvars.iv.next, %_ZlsI12inf_rationalERSoS1_RK16inf_eps_rationalIT_E.exit ], [ 0, %2 ]
  %7 = load ptr, ptr %1, align 8, !tbaa !3
  %8 = icmp eq ptr %7, null
  br i1 %8, label %_ZNK6vectorI16inf_eps_rationalI12inf_rationalELb1EjE4sizeEv.exit, label %9

9:                                                ; preds = %6
  %10 = getelementptr inbounds i8, ptr %7, i64 -4
  %11 = load i32, ptr %10, align 4, !tbaa !9
  %12 = zext i32 %11 to i64
  br label %_ZNK6vectorI16inf_eps_rationalI12inf_rationalELb1EjE4sizeEv.exit

_ZNK6vectorI16inf_eps_rationalI12inf_rationalELb1EjE4sizeEv.exit: ; preds = %6, %9
  %.0.i = phi i64 [ %12, %9 ], [ 0, %6 ]
  %13 = icmp samesign ult i64 %indvars.iv, %.0.i
  br i1 %13, label %15, label %14

14:                                               ; preds = %_ZNK6vectorI16inf_eps_rationalI12inf_rationalELb1EjE4sizeEv.exit
  ret ptr %0

15:                                               ; preds = %_ZNK6vectorI16inf_eps_rationalI12inf_rationalELb1EjE4sizeEv.exit
  %16 = getelementptr inbounds nuw %class.inf_eps_rational, ptr %7, i64 %indvars.iv
  call void @llvm.lifetime.start.p0(i64 32, ptr nonnull %3) #23
  call void @_ZNK16inf_eps_rationalI12inf_rationalE9to_stringB5cxx11Ev(ptr dead_on_unwind nonnull writable sret(%"class.std::__cxx11::basic_string") align 8 %3, ptr noundef nonnull align 8 dereferenceable(96) %16)
  %17 = load ptr, ptr %3, align 8, !tbaa !163
  %18 = load i64, ptr %4, align 8, !tbaa !166
  %19 = invoke noundef nonnull align 8 dereferenceable(8) ptr @_ZSt16__ostream_insertIcSt11char_traitsIcEERSt13basic_ostreamIT_T0_ES6_PKS3_l(ptr noundef nonnull align 8 dereferenceable(8) %0, ptr noundef %17, i64 noundef %18)
          to label %_ZStlsIcSt11char_traitsIcESaIcEERSt13basic_ostreamIT_T0_ES7_RKNSt7__cxx1112basic_stringIS4_S5_T1_EE.exit.i unwind label %26

_ZStlsIcSt11char_traitsIcESaIcEERSt13basic_ostreamIT_T0_ES7_RKNSt7__cxx1112basic_stringIS4_S5_T1_EE.exit.i: ; preds = %15
  %20 = load ptr, ptr %3, align 8, !tbaa !163
  %21 = icmp eq ptr %20, %5
  br i1 %21, label %_ZNKSt7__cxx1112basic_stringIcSt11char_traitsIcESaIcEE11_M_is_localEv.exit.thread.i.i.i, label %_ZNKSt7__cxx1112basic_stringIcSt11char_traitsIcESaIcEE11_M_is_localEv.exit.i.i.i

_ZNKSt7__cxx1112basic_stringIcSt11char_traitsIcESaIcEE11_M_is_localEv.exit.thread.i.i.i: ; preds = %_ZStlsIcSt11char_traitsIcESaIcEERSt13basic_ostreamIT_T0_ES7_RKNSt7__cxx1112basic_stringIS4_S5_T1_EE.exit.i
  %22 = load i64, ptr %4, align 8, !tbaa !166
  %23 = icmp ult i64 %22, 16
  call void @llvm.assume(i1 %23)
  br label %_ZlsI12inf_rationalERSoS1_RK16inf_eps_rationalIT_E.exit

_ZNKSt7__cxx1112basic_stringIcSt11char_traitsIcESaIcEE11_M_is_localEv.exit.i.i.i: ; preds = %_ZStlsIcSt11char_traitsIcESaIcEERSt13basic_ostreamIT_T0_ES7_RKNSt7__cxx1112basic_stringIS4_S5_T1_EE.exit.i
  %24 = load i64, ptr %5, align 8, !tbaa !167
  %25 = add i64 %24, 1
  call void @_ZdlPvm(ptr noundef %20, i64 noundef %25) #25
  br label %_ZlsI12inf_rationalERSoS1_RK16inf_eps_rationalIT_E.exit

26:                                               ; preds = %15
  %27 = landingpad { ptr, i32 }
          cleanup
  %28 = load ptr, ptr %3, align 8, !tbaa !163
  %29 = icmp eq ptr %28, %5
  br i1 %29, label %_ZNKSt7__cxx1112basic_stringIcSt11char_traitsIcESaIcEE11_M_is_localEv.exit.thread.i.i5.i, label %_ZNKSt7__cxx1112basic_stringIcSt11char_traitsIcESaIcEE11_M_is_localEv.exit.i.i4.i

_ZNKSt7__cxx1112basic_stringIcSt11char_traitsIcESaIcEE11_M_is_localEv.exit.thread.i.i5.i: ; preds = %26
  %30 = load i64, ptr %4, align 8, !tbaa !166
  %31 = icmp ult i64 %30, 16
  call void @llvm.assume(i1 %31)
  br label %_ZNSt7__cxx1112basic_stringIcSt11char_traitsIcESaIcEED2Ev.exit6.i

_ZNKSt7__cxx1112basic_stringIcSt11char_traitsIcESaIcEE11_M_is_localEv.exit.i.i4.i: ; preds = %26
  %32 = load i64, ptr %5, align 8, !tbaa !167
  %33 = add i64 %32, 1
  call void @_ZdlPvm(ptr noundef %28, i64 noundef %33) #25
  br label %_ZNSt7__cxx1112basic_stringIcSt11char_traitsIcESaIcEED2Ev.exit6.i

_ZNSt7__cxx1112basic_stringIcSt11char_traitsIcESaIcEED2Ev.exit6.i: ; preds = %_ZNKSt7__cxx1112basic_stringIcSt11char_traitsIcESaIcEE11_M_is_localEv.exit.i.i4.i, %_ZNKSt7__cxx1112basic_stringIcSt11char_traitsIcESaIcEE11_M_is_localEv.exit.thread.i.i5.i
  call void @llvm.lifetime.end.p0(i64 32, ptr nonnull %3) #23
  resume { ptr, i32 } %27

_ZlsI12inf_rationalERSoS1_RK16inf_eps_rationalIT_E.exit: ; preds = %_ZNKSt7__cxx1112basic_stringIcSt11char_traitsIcESaIcEE11_M_is_localEv.exit.thread.i.i.i, %_ZNKSt7__cxx1112basic_stringIcSt11char_traitsIcESaIcEE11_M_is_localEv.exit.i.i.i
  call void @llvm.lifetime.end.p0(i64 32, ptr nonnull %3) #23
  %34 = call noundef nonnull align 8 dereferenceable(8) ptr @_ZSt16__ostream_insertIcSt11char_traitsIcEERSt13basic_ostreamIT_T0_ES6_PKS3_l(ptr noundef nonnull align 8 dereferenceable(8) %0, ptr noundef nonnull @.str.9, i64 noundef 1)
  %indvars.iv.next = add nuw nsw i64 %indvars.iv, 1
  br label %6, !llvm.loop !185
}